target datalayout = "e-m:e-p270:32:32-p271:32:32-p272:64:64-i64:64-i128:128-f80:128-n8:16:32:64-S128"
target triple = "x86_64-pc-linux-gnu"

%"class.gmx::PositionCalculationCollection::Impl" = type { ptr, ptr, ptr, i8, %"class.std::vector.5", %"class.std::vector.5" }
%"class.std::vector.5" = type { %"struct.std::_Vector_base.6" }
%"struct.std::_Vector_base.6" = type { %"struct.std::_Vector_base<int, std::allocator<int>>::_Vector_impl" }
%"struct.std::_Vector_base<int, std::allocator<int>>::_Vector_impl" = type { %"struct.std::_Vector_base<int, std::allocator<int>>::_Vector_impl_data" }
%"struct.std::_Vector_base<int, std::allocator<int>>::_Vector_impl_data" = type { ptr, ptr, ptr }
%struct.gmx_ana_poscalc_t = type { i32, i32, i32, %struct.t_blocka, ptr, %struct.gmx_ana_index_t, ptr, i8, ptr, ptr, ptr, i32, ptr }
%struct.t_blocka = type { i32, ptr, i32, ptr, i32, i32 }
%struct.gmx_ana_index_t = type { i32, ptr, i32 }
%struct.gmx_ana_pos_t = type <{ ptr, ptr, ptr, %struct.gmx_ana_indexmap_t, i32, [4 x i8] }>
%struct.gmx_ana_indexmap_t = type { i32, ptr, ptr, %struct.t_blocka, ptr, %struct.t_blocka, i8 }

; Function Attrs: mustprogress uwtable
define void @_Z24gmx_ana_poscalc_init_posP17gmx_ana_poscalc_tP13gmx_ana_pos_t(ptr noundef %0, ptr noundef %1) #0 {
  %3 = alloca ptr, align 8
  %4 = alloca ptr, align 8
  store ptr %0, ptr %3, align 8, !tbaa !171
  store ptr %1, ptr %4, align 8, !tbaa !229
  %5 = load ptr, ptr %4, align 8, !tbaa !229
  %6 = getelementptr inbounds nuw %struct.gmx_ana_pos_t, ptr %5, i32 0, i32 3
  %7 = load ptr, ptr %3, align 8, !tbaa !171
  %8 = getelementptr inbounds nuw %struct.gmx_ana_poscalc_t, ptr %7, i32 0, i32 5
  %9 = load ptr, ptr %3, align 8, !tbaa !171
  %10 = getelementptr inbounds nuw %struct.gmx_ana_poscalc_t, ptr %9, i32 0, i32 12
  %11 = load ptr, ptr %10, align 8, !tbaa !172
  %12 = getelementptr inbounds nuw %"class.gmx::PositionCalculationCollection::Impl", ptr %11, i32 0, i32 0
  %13 = load ptr, ptr %12, align 8, !tbaa !136
  %14 = load ptr, ptr %3, align 8, !tbaa !171
  %15 = getelementptr inbounds nuw %struct.gmx_ana_poscalc_t, ptr %14, i32 0, i32 2
  %16 = load i32, ptr %15, align 8, !tbaa !184
  call void @_Z21gmx_ana_indexmap_initP18gmx_ana_indexmap_tP15gmx_ana_index_tPK10gmx_mtop_t9e_index_t(ptr noundef %6, ptr noundef %8, ptr noundef %13, i32 noundef %16)
  %17 = load ptr, ptr %3, align 8, !tbaa !171
  %18 = getelementptr inbounds nuw %struct.gmx_ana_poscalc_t, ptr %17, i32 0, i32 1
  %19 = load i32, ptr %18, align 4, !tbaa !177
  %20 = and i32 %19, 16
  %21 = icmp ne i32 %20, 0
  br i1 %21, label %37, label %22

22:                                               ; preds = %2
  %23 = load ptr, ptr %3, align 8, !tbaa !171
  %24 = getelementptr inbounds nuw %struct.gmx_ana_poscalc_t, ptr %23, i32 0, i32 3
  %25 = getelementptr inbounds nuw %struct.t_blocka, ptr %24, i32 0, i32 2
  %26 = load i32, ptr %25, align 8, !tbaa !213
  %27 = load ptr, ptr %3, align 8, !tbaa !171
  %28 = getelementptr inbounds nuw %struct.gmx_ana_poscalc_t, ptr %27, i32 0, i32 5
  %29 = getelementptr inbounds nuw %struct.gmx_ana_index_t, ptr %28, i32 0, i32 0
  %30 = load i32, ptr %29, align 8, !tbaa !215
  %31 = icmp eq i32 %26, %30
  br i1 %31, label %32, label %37

32:                                               ; preds = %22
  %33 = load ptr, ptr %4, align 8, !tbaa !229
  %34 = getelementptr inbounds nuw %struct.gmx_ana_pos_t, ptr %33, i32 0, i32 3
  %35 = load ptr, ptr %3, align 8, !tbaa !171
  %36 = getelementptr inbounds nuw %struct.gmx_ana_poscalc_t, ptr %35, i32 0, i32 3
  call void @_Z27gmx_ana_indexmap_set_staticP18gmx_ana_indexmap_tP8t_blocka(ptr noundef %34, ptr noundef %36)
  br label %37

37:                                               ; preds = %32, %22, %2
  %38 = load ptr, ptr %4, align 8, !tbaa !229
  %39 = load ptr, ptr %4, align 8, !tbaa !229
  %40 = getelementptr inbounds nuw %struct.gmx_ana_pos_t, ptr %39, i32 0, i32 3
  %41 = getelementptr inbounds nuw %struct.gmx_ana_indexmap_t, ptr %40, i32 0, i32 3
  %42 = getelementptr inbounds nuw %struct.t_blocka, ptr %41, i32 0, i32 0
  %43 = load i32, ptr %42, align 8, !tbaa !230
  call void @_Z19gmx_ana_pos_reserveP13gmx_ana_pos_tii(ptr noundef %38, i32 noundef %43, i32 noundef -1)
  %44 = load ptr, ptr %3, align 8, !tbaa !171
  %45 = getelementptr inbounds nuw %struct.gmx_ana_poscalc_t, ptr %44, i32 0, i32 1
  %46 = load i32, ptr %45, align 4, !tbaa !177
  %47 = and i32 %46, 64
  %48 = icmp ne i32 %47, 0
  br i1 %48, label %49, label %51

49:                                               ; preds = %37
  %50 = load ptr, ptr %4, align 8, !tbaa !229
  call void @_Z30gmx_ana_pos_reserve_velocitiesP13gmx_ana_pos_t(ptr noundef %50)
  br label %51

51:                                               ; preds = %49, %37
  %52 = load ptr, ptr %3, align 8, !tbaa !171
  %53 = getelementptr inbounds nuw %struct.gmx_ana_poscalc_t, ptr %52, i32 0, i32 1
  %54 = load i32, ptr %53, align 4, !tbaa !177
  %55 = and i32 %54, 128
  %56 = icmp ne i32 %55, 0
  br i1 %56, label %57, label %59

57:                                               ; preds = %51
  %58 = load ptr, ptr %4, align 8, !tbaa !229
  call void @_Z26gmx_ana_pos_reserve_forcesP13gmx_ana_pos_t(ptr noundef %58)
  br label %59

59:                                               ; preds = %57, %51
  ret void
}