; Function Attrs: mustprogress uwtable
define void @_Z24gmx_ana_poscalc_init_posP17gmx_ana_poscalc_tP13gmx_ana_pos_t(ptr noundef %0, ptr noundef %1) local_unnamed_addr #0 {
  %3 = getelementptr inbounds nuw i8, ptr %1, i64 24
  %4 = getelementptr inbounds nuw i8, ptr %0, i64 64
  %5 = getelementptr inbounds nuw i8, ptr %0, i64 136
  %6 = load ptr, ptr %5, align 8, !tbaa !70
  %7 = load ptr, ptr %6, align 8, !tbaa !85
  %8 = getelementptr inbounds nuw i8, ptr %0, i64 8
  %9 = load i32, ptr %8, align 8, !tbaa !83
  tail call void @_Z21gmx_ana_indexmap_initP18gmx_ana_indexmap_tP15gmx_ana_index_tPK10gmx_mtop_t9e_index_t(ptr noundef nonnull %3, ptr noundef nonnull %4, ptr noundef %7, i32 noundef %9)
  %10 = getelementptr inbounds nuw i8, ptr %0, i64 4
  %11 = load i32, ptr %10, align 4, !tbaa !78
  %12 = and i32 %11, 16
  %.not = icmp eq i32 %12, 0
  br i1 %.not, label %13, label %20

13:                                               ; preds = %2
  %14 = getelementptr inbounds nuw i8, ptr %0, i64 32
  %15 = load i32, ptr %14, align 8, !tbaa !88
  %16 = load i32, ptr %4, align 8, !tbaa !90
  %17 = icmp eq i32 %15, %16
  br i1 %17, label %18, label %20

18:                                               ; preds = %13
  %19 = getelementptr inbounds nuw i8, ptr %0, i64 16
  tail call void @_Z27gmx_ana_indexmap_set_staticP18gmx_ana_indexmap_tP8t_blocka(ptr noundef nonnull %3, ptr noundef nonnull %19)
  br label %20

20:                                               ; preds = %18, %13, %2
  %21 = getelementptr inbounds nuw i8, ptr %1, i64 48
  %22 = load i32, ptr %21, align 8, !tbaa !106
  tail call void @_Z19gmx_ana_pos_reserveP13gmx_ana_pos_tii(ptr noundef nonnull %1, i32 noundef %22, i32 noundef -1)
  %23 = load i32, ptr %10, align 4, !tbaa !78
  %24 = and i32 %23, 64
  %.not15 = icmp eq i32 %24, 0
  br i1 %.not15, label %26, label %25

25:                                               ; preds = %20
  tail call void @_Z30gmx_ana_pos_reserve_velocitiesP13gmx_ana_pos_t(ptr noundef nonnull %1)
  %.pre = load i32, ptr %10, align 4, !tbaa !78
  br label %26

26:                                               ; preds = %25, %20
  %27 = phi i32 [ %.pre, %25 ], [ %23, %20 ]
  %28 = and i32 %27, 128
  %.not16 = icmp eq i32 %28, 0
  br i1 %.not16, label %30, label %29

29:                                               ; preds = %26
  tail call void @_Z26gmx_ana_pos_reserve_forcesP13gmx_ana_pos_t(ptr noundef nonnull %1)
  br label %30

30:                                               ; preds = %29, %26
  ret void
}